target datalayout = "e-m:e-p270:32:32-p271:32:32-p272:64:64-i64:64-i128:128-f80:128-n8:16:32:64-S128"
target triple = "x86_64-pc-linux-gnu"

%struct.Sbd_Sto_t_ = type { i32, i32, i32, i32, i32, ptr, ptr, ptr, ptr, ptr, ptr, ptr, [3 x [501 x %struct.Sbd_Cut_t_]], [501 x ptr], i32, i32, i32, i32, i32, i32, [4 x double], i64 }
%struct.Sbd_Cut_t_ = type { i64, i32, i32, i32, i32, [10 x i32] }
%struct.Vec_Int_t_ = type { i32, i32, ptr }

; Function Attrs: inlinehint nounwind uwtable
define internal i32 @Vec_IntEntry(ptr noundef %0, i32 noundef %1) #2 {
  %3 = alloca ptr, align 8
  %4 = alloca i32, align 4
  store ptr %0, ptr %3, align 8, !tbaa !56
  store i32 %1, ptr %4, align 4, !tbaa !8
  %5 = load ptr, ptr %3, align 8, !tbaa !56
  %6 = getelementptr inbounds nuw %struct.Vec_Int_t_, ptr %5, i32 0, i32 2
  %7 = load ptr, ptr %6, align 8, !tbaa !57
  %8 = load i32, ptr %4, align 4, !tbaa !8
  %9 = sext i32 %8 to i64
  %10 = getelementptr inbounds i32, ptr %7, i64 %9
  %11 = load i32, ptr %10, align 4, !tbaa !8
  ret i32 %11
}

; Function Attrs: nounwind uwtable
define i32 @Sbd_StoObjRefs(ptr noundef %0, i32 noundef %1) #0 {
  %3 = alloca ptr, align 8
  %4 = alloca i32, align 4
  store ptr %0, ptr %3, align 8, !tbaa !3
  store i32 %1, ptr %4, align 4, !tbaa !8
  %5 = load ptr, ptr %3, align 8, !tbaa !3
  %6 = getelementptr inbounds nuw %struct.Sbd_Sto_t_, ptr %5, i32 0, i32 9
  %7 = load ptr, ptr %6, align 8, !tbaa !77
  %8 = load i32, ptr %4, align 4, !tbaa !8
  %9 = call i32 @Vec_IntEntry(ptr noundef %7, i32 noundef %8)
  ret i32 %9
}