; Function Attrs: mustprogress nofree norecurse nosync nounwind willreturn memory(read, inaccessiblemem: none) uwtable
define i32 @Sbd_StoObjRefs(ptr noundef readonly captures(none) %0, i32 noundef %1) local_unnamed_addr #8 {
  %3 = getelementptr inbounds nuw i8, ptr %0, i64 56
  %4 = load ptr, ptr %3, align 8, !tbaa !88
  %5 = getelementptr i8, ptr %4, i64 8
  %.val = load ptr, ptr %5, align 8, !tbaa !34
  %6 = sext i32 %1 to i64
  %7 = getelementptr inbounds i32, ptr %.val, i64 %6
  %8 = load i32, ptr %7, align 4, !tbaa !35
  ret i32 %8
}